target datalayout = "e-m:e-p270:32:32-p271:32:32-p272:64:64-i64:64-i128:128-f80:128-n8:16:32:64-S128"
target triple = "x86_64-pc-linux-gnu"

%struct.lua_TValue = type { %union.Value, [1 x i32], i32 }
%union.Value = type { ptr }

; Function Attrs: mustprogress nounwind uwtable
define internal noundef i32 @_ZL17luauF_vectorfloorP9lua_StateP10lua_TValueS2_iS2_i(ptr noundef %0, ptr noundef %1, ptr noundef %2, i32 noundef %3, ptr noundef %4, i32 noundef %5) #0 {
  %7 = alloca i32, align 4
  %8 = alloca ptr, align 8
  %9 = alloca ptr, align 8
  %10 = alloca ptr, align 8
  %11 = alloca i32, align 4
  %12 = alloca ptr, align 8
  %13 = alloca i32, align 4
  %14 = alloca ptr, align 8
  %15 = alloca ptr, align 8
  %16 = alloca ptr, align 8
  store ptr %0, ptr %8, align 8, !tbaa !4
  store ptr %1, ptr %9, align 8, !tbaa !9
  store ptr %2, ptr %10, align 8, !tbaa !9
  store i32 %3, ptr %11, align 4, !tbaa !11
  store ptr %4, ptr %12, align 8, !tbaa !9
  store i32 %5, ptr %13, align 4, !tbaa !11
  %17 = load i32, ptr %13, align 4, !tbaa !11
  %18 = icmp sge i32 %17, 1
  br i1 %18, label %19, label %55

19:                                               ; preds = %6
  %20 = load i32, ptr %11, align 4, !tbaa !11
  %21 = icmp sle i32 %20, 1
  br i1 %21, label %22, label %55

22:                                               ; preds = %19
  %23 = load ptr, ptr %10, align 8, !tbaa !9
  %24 = getelementptr inbounds nuw %struct.lua_TValue, ptr %23, i32 0, i32 2
  %25 = load i32, ptr %24, align 4, !tbaa !13
  %26 = icmp eq i32 %25, 4
  br i1 %26, label %27, label %55

27:                                               ; preds = %22
  call void @llvm.lifetime.start.p0(i64 8, ptr %14) #17
  %28 = load ptr, ptr %10, align 8, !tbaa !9
  %29 = getelementptr inbounds nuw %struct.lua_TValue, ptr %28, i32 0, i32 0
  %30 = getelementptr inbounds [2 x float], ptr %29, i64 0, i64 0
  store ptr %30, ptr %14, align 8, !tbaa !72
  call void @llvm.lifetime.start.p0(i64 8, ptr %15) #17
  %31 = load ptr, ptr %9, align 8, !tbaa !9
  store ptr %31, ptr %15, align 8, !tbaa !9
  call void @llvm.lifetime.start.p0(i64 8, ptr %16) #17
  %32 = load ptr, ptr %15, align 8, !tbaa !9
  %33 = getelementptr inbounds nuw %struct.lua_TValue, ptr %32, i32 0, i32 0
  %34 = getelementptr inbounds [2 x float], ptr %33, i64 0, i64 0
  store ptr %34, ptr %16, align 8, !tbaa !72
  %35 = load ptr, ptr %14, align 8, !tbaa !72
  %36 = getelementptr inbounds float, ptr %35, i64 0
  %37 = load float, ptr %36, align 4, !tbaa !70
  %38 = call float @llvm.floor.f32(float %37)
  %39 = load ptr, ptr %16, align 8, !tbaa !72
  %40 = getelementptr inbounds float, ptr %39, i64 0
  store float %38, ptr %40, align 4, !tbaa !70
  %41 = load ptr, ptr %14, align 8, !tbaa !72
  %42 = getelementptr inbounds float, ptr %41, i64 1
  %43 = load float, ptr %42, align 4, !tbaa !70
  %44 = call float @llvm.floor.f32(float %43)
  %45 = load ptr, ptr %16, align 8, !tbaa !72
  %46 = getelementptr inbounds float, ptr %45, i64 1
  store float %44, ptr %46, align 4, !tbaa !70
  %47 = load ptr, ptr %14, align 8, !tbaa !72
  %48 = getelementptr inbounds float, ptr %47, i64 2
  %49 = load float, ptr %48, align 4, !tbaa !70
  %50 = call float @llvm.floor.f32(float %49)
  %51 = load ptr, ptr %16, align 8, !tbaa !72
  %52 = getelementptr inbounds float, ptr %51, i64 2
  store float %50, ptr %52, align 4, !tbaa !70
  %53 = load ptr, ptr %15, align 8, !tbaa !9
  %54 = getelementptr inbounds nuw %struct.lua_TValue, ptr %53, i32 0, i32 2
  store i32 4, ptr %54, align 4, !tbaa !13
  call void @llvm.lifetime.end.p0(i64 8, ptr %16) #17
  call void @llvm.lifetime.end.p0(i64 8, ptr %15) #17
  store i32 1, ptr %7, align 4
  call void @llvm.lifetime.end.p0(i64 8, ptr %14) #17
  br label %56

55:                                               ; preds = %22, %19, %6
  store i32 -1, ptr %7, align 4
  br label %56

56:                                               ; preds = %55, %27
  %57 = load i32, ptr %7, align 4
  ret i32 %57
}